; Function Attrs: nounwind uwtable
define ptr @l___private_Lean_Meta_Tactic_Grind_ProveEq_0__Lean_Meta_Grind_withIncOffset___rarg___boxed(ptr noundef %0, ptr noundef %1, ptr noundef %2, ptr noundef %3, ptr noundef %4, ptr noundef %5, ptr noundef %6, ptr noundef %7, ptr noundef %8, ptr noundef %9, ptr noundef %10, ptr noundef %11) #1 {
  %13 = ptrtoint ptr %1 to i64
  %14 = and i64 %13, 1
  %.not.i14 = icmp eq i64 %14, 0
  br i1 %.not.i14, label %26, label %15, !prof !13

15:                                               ; preds = %12
  %16 = lshr i64 %13, 1
  %17 = add nuw i64 %16, 1
  %18 = icmp sgt i64 %17, -1
  br i1 %18, label %19, label %23, !prof !11

19:                                               ; preds = %15
  %20 = shl nuw i64 %17, 1
  %21 = or disjoint i64 %20, 1
  %22 = inttoptr i64 %21 to ptr
  br label %l___private_Lean_Meta_Tactic_Grind_ProveEq_0__Lean_Meta_Grind_withIncOffset___rarg.exit.thread

23:                                               ; preds = %15
  %24 = tail call ptr @lean_big_usize_to_nat(i64 noundef range(i64 0, -1) %17) #4
  br label %l___private_Lean_Meta_Tactic_Grind_ProveEq_0__Lean_Meta_Grind_withIncOffset___rarg.exit.thread

l___private_Lean_Meta_Tactic_Grind_ProveEq_0__Lean_Meta_Grind_withIncOffset___rarg.exit.thread: ; preds = %19, %23
  %.0.i.i.ph = phi ptr [ %24, %23 ], [ %22, %19 ]
  %25 = tail call ptr @lean_apply_11(ptr noundef %0, ptr noundef %.0.i.i.ph, ptr noundef %2, ptr noundef %3, ptr noundef %4, ptr noundef %5, ptr noundef %6, ptr noundef %7, ptr noundef %8, ptr noundef %9, ptr noundef %10, ptr noundef %11) #4
  br label %lean_dec.exit

26:                                               ; preds = %12
  %27 = tail call ptr @lean_nat_big_add(ptr noundef %1, ptr noundef nonnull inttoptr (i64 3 to ptr)) #4
  %28 = tail call ptr @lean_apply_11(ptr noundef %0, ptr noundef %27, ptr noundef %2, ptr noundef %3, ptr noundef %4, ptr noundef %5, ptr noundef %6, ptr noundef %7, ptr noundef %8, ptr noundef %9, ptr noundef %10, ptr noundef %11) #4
  %29 = load i32, ptr %1, align 4, !tbaa !8
  %30 = icmp sgt i32 %29, 1
  br i1 %30, label %31, label %33, !prof !11

31:                                               ; preds = %26
  %32 = add nsw i32 %29, -1
  store i32 %32, ptr %1, align 4, !tbaa !8
  br label %lean_dec.exit

33:                                               ; preds = %26
  %.not.i = icmp eq i32 %29, 0
  br i1 %.not.i, label %lean_dec.exit, label %34

34:                                               ; preds = %33
  tail call void @lean_dec_ref_cold(ptr noundef nonnull %1) #4
  br label %lean_dec.exit

lean_dec.exit:                                    ; preds = %34, %33, %31, %l___private_Lean_Meta_Tactic_Grind_ProveEq_0__Lean_Meta_Grind_withIncOffset___rarg.exit.thread
  %35 = phi ptr [ %25, %l___private_Lean_Meta_Tactic_Grind_ProveEq_0__Lean_Meta_Grind_withIncOffset___rarg.exit.thread ], [ %28, %31 ], [ %28, %33 ], [ %28, %34 ]
  ret ptr %35
}